; Function Attrs: mustprogress nounwind uwtable
define hidden void @_ZN18CompiledDirectCall18set_to_interpretedERK12methodHandlePh(ptr noundef nonnull align 8 dereferenceable(8) %0, ptr nocapture noundef nonnull readonly align 8 dereferenceable(16) %1, ptr noundef %2) local_unnamed_addr #0 align 2 {
  %4 = tail call noundef ptr @_ZN18CompiledDirectCall9find_stubEv(ptr noundef nonnull align 8 dereferenceable(8) %0) #4
  %.not = icmp eq ptr %4, null
  br i1 %.not, label %5, label %7

5:                                                ; preds = %3
  %6 = load ptr, ptr @g_assert_poison, align 8
  store i8 88, ptr %6, align 1
  tail call void (ptr, i32, ptr, ptr, ...) @_Z15report_vm_errorPKciS0_S0_z(ptr noundef nonnull @.str, i32 noundef 81, ptr noundef nonnull @.str.4, ptr noundef nonnull @.str.5) #5
  unreachable

7:                                                ; preds = %3
  %8 = load i8, ptr %4, align 1
  %9 = icmp eq i8 %8, -43
  %10 = select i1 %9, i64 11, i64 10
  %11 = getelementptr inbounds i8, ptr %4, i64 %10
  %12 = load ptr, ptr %1, align 8
  %13 = ptrtoint ptr %12 to i64
  %14 = select i1 %9, i32 3, i32 2
  %15 = zext nneg i32 %14 to i64
  %16 = getelementptr inbounds i8, ptr %4, i64 %15
  store i64 %13, ptr %16, align 8
  tail call void @_ZN17NativeInstruction5wroteEi(ptr noundef nonnull align 1 dereferenceable(1) %4, i32 noundef %14) #4
  %17 = getelementptr inbounds i8, ptr %11, i64 5
  %18 = ptrtoint ptr %2 to i64
  %19 = ptrtoint ptr %17 to i64
  %20 = sub i64 %18, %19
  %21 = icmp eq ptr %2, inttoptr (i64 -1 to ptr)
  %22 = trunc i64 %20 to i32
  %23 = select i1 %21, i32 -5, i32 %22
  %24 = getelementptr inbounds i8, ptr %11, i64 1
  store i32 %23, ptr %24, align 4
  tail call void @_ZN17NativeInstruction5wroteEi(ptr noundef nonnull align 1 dereferenceable(1) %11, i32 noundef 1) #4
  %25 = load ptr, ptr %0, align 8
  tail call void @_ZN10NativeCall23set_destination_mt_safeEPh(ptr noundef nonnull align 1 dereferenceable(1) %25, ptr noundef nonnull %4) #4
  ret void
}